; Function Attrs: mustprogress uwtable
define dso_local void @_ZN8Function17make_return_constEv(ptr noundef nonnull align 8 captures(none) dereferenceable(424) %0) local_unnamed_addr #4 align 2 {
  %2 = tail call noundef zeroext i1 @_ZN9CGOptions13depth_protectEv()
  br i1 %2, label %3, label %13

3:                                                ; preds = %1
  %4 = getelementptr inbounds nuw i8, ptr %0, i64 56
  %5 = load ptr, ptr %4, align 8
  %6 = load i32, ptr %5, align 8
  %.not.i = icmp eq i32 %6, 0
  br i1 %.not.i, label %_ZN8Function16need_return_stmtEv.exit, label %_ZN8Function16need_return_stmtEv.exit.thread

_ZN8Function16need_return_stmtEv.exit:            ; preds = %3
  %7 = getelementptr inbounds nuw i8, ptr %5, i64 16
  %8 = load i32, ptr %7, align 8
  %.not2 = icmp eq i32 %8, 0
  br i1 %.not2, label %13, label %_ZN8Function16need_return_stmtEv.exit.thread

_ZN8Function16need_return_stmtEv.exit.thread:     ; preds = %3, %_ZN8Function16need_return_stmtEv.exit
  %9 = tail call noundef ptr @_ZN8Constant11make_randomEPK4Type(ptr noundef nonnull %5)
  %10 = load i32, ptr @_ZN5Error8r_error_E, align 4
  %.not = icmp eq i32 %10, 0
  br i1 %.not, label %11, label %13

11:                                               ; preds = %_ZN8Function16need_return_stmtEv.exit.thread
  %12 = getelementptr inbounds nuw i8, ptr %0, i64 200
  store ptr %9, ptr %12, align 8
  br label %13

13:                                               ; preds = %_ZN8Function16need_return_stmtEv.exit.thread, %11, %_ZN8Function16need_return_stmtEv.exit, %1
  ret void
}